; ModuleID = '42/809.cpp'
source_filename = "42/809.cpp"
target datalayout = "e-m:e-p270:32:32-p271:32:32-p272:64:64-i64:64-f80:128-n8:16:32:64-S128"
target triple = "x86_64-pc-linux-gnu"

%"class.std::ios_base::Init" = type { i8 }
%"class.std::basic_istream" = type { i32 (...)**, i64, %"class.std::basic_ios" }
%"class.std::basic_ios" = type { %"class.std::ios_base", %"class.std::basic_ostream"*, i8, i8, %"class.std::basic_streambuf"*, %"class.std::ctype"*, %"class.std::num_put"*, %"class.std::num_get"* }
%"class.std::ios_base" = type { i32 (...)**, i64, i64, i32, i32, i32, %"struct.std::ios_base::_Callback_list"*, %"struct.std::ios_base::_Words", [8 x %"struct.std::ios_base::_Words"], i32, %"struct.std::ios_base::_Words"*, %"class.std::locale" }
%"struct.std::ios_base::_Callback_list" = type { %"struct.std::ios_base::_Callback_list"*, void (i32, %"class.std::ios_base"*, i32)*, i32, i32 }
%"struct.std::ios_base::_Words" = type { i8*, i64 }
%"class.std::locale" = type { %"class.std::locale::_Impl"* }
%"class.std::locale::_Impl" = type { i32, %"class.std::locale::facet"**, i64, %"class.std::locale::facet"**, i8** }
%"class.std::locale::facet" = type <{ i32 (...)**, i32, [4 x i8] }>
%"class.std::basic_ostream" = type { i32 (...)**, %"class.std::basic_ios" }
%"class.std::basic_streambuf" = type { i32 (...)**, i8*, i8*, i8*, i8*, i8*, i8*, %"class.std::locale" }
%"class.std::ctype" = type <{ %"class.std::locale::facet.base", [4 x i8], %struct.__locale_struct*, i8, [7 x i8], i32*, i32*, i16*, i8, [256 x i8], [256 x i8], i8, [6 x i8] }>
%"class.std::locale::facet.base" = type <{ i32 (...)**, i32 }>
%struct.__locale_struct = type { [13 x %struct.__locale_data*], i16*, i32*, i32*, [13 x i8*] }
%struct.__locale_data = type opaque
%"class.std::num_put" = type { %"class.std::locale::facet.base", [4 x i8] }
%"class.std::num_get" = type { %"class.std::locale::facet.base", [4 x i8] }

@_ZStL8__ioinit = internal global %"class.std::ios_base::Init" zeroinitializer, align 1
@__dso_handle = external hidden global i8
@_ZSt3cin = external dso_local global %"class.std::basic_istream", align 8
@_ZSt4cout = external dso_local global %"class.std::basic_ostream", align 8
@llvm.global_ctors = appending global [1 x { i32, void ()*, i8* }] [{ i32, void ()*, i8* } { i32 65535, void ()* @_GLOBAL__sub_I_809.cpp, i8* null }]

; Function Attrs: noinline uwtable
define internal void @__cxx_global_var_init() #0 section ".text.startup" {
  call void @_ZNSt8ios_base4InitC1Ev(%"class.std::ios_base::Init"* @_ZStL8__ioinit)
  %1 = call i32 @__cxa_atexit(void (i8*)* bitcast (void (%"class.std::ios_base::Init"*)* @_ZNSt8ios_base4InitD1Ev to void (i8*)*), i8* getelementptr inbounds (%"class.std::ios_base::Init", %"class.std::ios_base::Init"* @_ZStL8__ioinit, i32 0, i32 0), i8* @__dso_handle) #3
  ret void
}

declare dso_local void @_ZNSt8ios_base4InitC1Ev(%"class.std::ios_base::Init"*) unnamed_addr #1

; Function Attrs: nounwind
declare dso_local void @_ZNSt8ios_base4InitD1Ev(%"class.std::ios_base::Init"*) unnamed_addr #2

; Function Attrs: nounwind
declare dso_local i32 @__cxa_atexit(void (i8*)*, i8*, i8*) #3

; Function Attrs: noinline norecurse uwtable
define dso_local i32 @main() #4 {
  %1 = alloca i32, align 4
  %2 = alloca i32, align 4
  %3 = alloca i32, align 4
  %4 = alloca [100001 x i64], align 16
  %5 = alloca i64, align 8
  %6 = alloca i64, align 8
  %7 = alloca i64, align 8
  store i32 0, i32* %1, align 4
  %8 = getelementptr inbounds [100001 x i64], [100001 x i64]* %4, i64 0, i64 0
  %9 = bitcast i64* %8 to i8*
  call void @llvm.memset.p0i8.i64(i8* align 16 %9, i8 0, i64 800008, i1 false)
  %10 = call dereferenceable(280) %"class.std::basic_istream"* @_ZNSirsERl(%"class.std::basic_istream"* @_ZSt3cin, i64* dereferenceable(8) %5)
  %11 = load i64, i64* %5, align 8
  store i64 %11, i64* %7, align 8
  store i32 0, i32* %2, align 4
  br label %12

12:                                               ; preds = %22, %0
  %13 = load i32, i32* %2, align 4
  %14 = sext i32 %13 to i64
  %15 = load i64, i64* %5, align 8
  %16 = icmp slt i64 %14, %15
  br i1 %16, label %17, label %25

17:                                               ; preds = %12
  %18 = load i32, i32* %2, align 4
  %19 = sext i32 %18 to i64
  %20 = getelementptr inbounds [100001 x i64], [100001 x i64]* %4, i64 0, i64 %19
  %21 = call dereferenceable(280) %"class.std::basic_istream"* @_ZNSirsERl(%"class.std::basic_istream"* @_ZSt3cin, i64* dereferenceable(8) %20)
  br label %22

22:                                               ; preds = %17
  %23 = load i32, i32* %2, align 4
  %24 = add nsw i32 %23, 1
  store i32 %24, i32* %2, align 4
  br label %12

25:                                               ; preds = %12
  %26 = call dereferenceable(280) %"class.std::basic_istream"* @_ZNSirsERl(%"class.std::basic_istream"* @_ZSt3cin, i64* dereferenceable(8) %6)
  store i32 0, i32* %2, align 4
  br label %27

27:                                               ; preds = %74, %25
  %28 = load i32, i32* %2, align 4
  %29 = sext i32 %28 to i64
  %30 = load i64, i64* %7, align 8
  %31 = icmp slt i64 %29, %30
  br i1 %31, label %32, label %77

32:                                               ; preds = %27
  br label %33

33:                                               ; preds = %70, %32
  %34 = load i32, i32* %2, align 4
  %35 = sext i32 %34 to i64
  %36 = getelementptr inbounds [100001 x i64], [100001 x i64]* %4, i64 0, i64 %35
  %37 = load i64, i64* %36, align 8
  %38 = load i64, i64* %6, align 8
  %39 = sub nsw i64 %37, %38
  %40 = icmp eq i64 %39, 0
  br i1 %40, label %41, label %73

41:                                               ; preds = %33
  %42 = load i64, i64* %7, align 8
  %43 = load i32, i32* %2, align 4
  %44 = sext i32 %43 to i64
  %45 = sub nsw i64 %42, %44
  %46 = icmp eq i64 %45, 1
  br i1 %46, label %47, label %50

47:                                               ; preds = %41
  %48 = load i64, i64* %7, align 8
  %49 = sub nsw i64 %48, 1
  store i64 %49, i64* %7, align 8
  br label %73

50:                                               ; preds = %41
  %51 = load i32, i32* %2, align 4
  store i32 %51, i32* %3, align 4
  br label %52

52:                                               ; preds = %67, %50
  %53 = load i32, i32* %3, align 4
  %54 = sext i32 %53 to i64
  %55 = load i64, i64* %7, align 8
  %56 = sub nsw i64 %55, 1
  %57 = icmp slt i64 %54, %56
  br i1 %57, label %58, label %70

58:                                               ; preds = %52
  %59 = load i32, i32* %3, align 4
  %60 = add nsw i32 %59, 1
  %61 = sext i32 %60 to i64
  %62 = getelementptr inbounds [100001 x i64], [100001 x i64]* %4, i64 0, i64 %61
  %63 = load i64, i64* %62, align 8
  %64 = load i32, i32* %3, align 4
  %65 = sext i32 %64 to i64
  %66 = getelementptr inbounds [100001 x i64], [100001 x i64]* %4, i64 0, i64 %65
  store i64 %63, i64* %66, align 8
  br label %67

67:                                               ; preds = %58
  %68 = load i32, i32* %3, align 4
  %69 = add nsw i32 %68, 1
  store i32 %69, i32* %3, align 4
  br label %52

70:                                               ; preds = %52
  %71 = load i64, i64* %7, align 8
  %72 = sub nsw i64 %71, 1
  store i64 %72, i64* %7, align 8
  br label %33

73:                                               ; preds = %47, %33
  br label %74

74:                                               ; preds = %73
  %75 = load i32, i32* %2, align 4
  %76 = add nsw i32 %75, 1
  store i32 %76, i32* %2, align 4
  br label %27

77:                                               ; preds = %27
  %78 = getelementptr inbounds [100001 x i64], [100001 x i64]* %4, i64 0, i64 0
  %79 = load i64, i64* %78, align 16
  %80 = call dereferenceable(272) %"class.std::basic_ostream"* @_ZNSolsEl(%"class.std::basic_ostream"* @_ZSt4cout, i64 %79)
  store i32 1, i32* %2, align 4
  br label %81

81:                                               ; preds = %93, %77
  %82 = load i32, i32* %2, align 4
  %83 = sext i32 %82 to i64
  %84 = load i64, i64* %7, align 8
  %85 = icmp slt i64 %83, %84
  br i1 %85, label %86, label %96

86:                                               ; preds = %81
  %87 = call dereferenceable(272) %"class.std::basic_ostream"* @_ZStlsISt11char_traitsIcEERSt13basic_ostreamIcT_ES5_c(%"class.std::basic_ostream"* dereferenceable(272) @_ZSt4cout, i8 signext 32)
  %88 = load i32, i32* %2, align 4
  %89 = sext i32 %88 to i64
  %90 = getelementptr inbounds [100001 x i64], [100001 x i64]* %4, i64 0, i64 %89
  %91 = load i64, i64* %90, align 8
  %92 = call dereferenceable(272) %"class.std::basic_ostream"* @_ZNSolsEl(%"class.std::basic_ostream"* %87, i64 %91)
  br label %93

93:                                               ; preds = %86
  %94 = load i32, i32* %2, align 4
  %95 = add nsw i32 %94, 1
  store i32 %95, i32* %2, align 4
  br label %81

96:                                               ; preds = %81
  ret i32 0
}

; Function Attrs: argmemonly nounwind willreturn
declare void @llvm.memset.p0i8.i64(i8* nocapture writeonly, i8, i64, i1 immarg) #5

declare dso_local dereferenceable(280) %"class.std::basic_istream"* @_ZNSirsERl(%"class.std::basic_istream"*, i64* dereferenceable(8)) #1

declare dso_local dereferenceable(272) %"class.std::basic_ostream"* @_ZNSolsEl(%"class.std::basic_ostream"*, i64) #1

declare dso_local dereferenceable(272) %"class.std::basic_ostream"* @_ZStlsISt11char_traitsIcEERSt13basic_ostreamIcT_ES5_c(%"class.std::basic_ostream"* dereferenceable(272), i8 signext) #1

; Function Attrs: noinline uwtable
define internal void @_GLOBAL__sub_I_809.cpp() #0 section ".text.startup" {
  call void @__cxx_global_var_init()
  ret void
}


!llvm.module.flags = !{!0}
!llvm.ident = !{!1}

!0 = !{i32 1, !"wchar_size", i32 4}
!1 = !{!"clang version 10.0.0-4ubuntu1 "}
